target datalayout = "e-m:e-p270:32:32-p271:32:32-p272:64:64-i64:64-i128:128-f80:128-n8:16:32:64-S128"
target triple = "x86_64-pc-linux-gnu"

%"class.fmt::v11::basic_string_view" = type { ptr, i64 }
%"class.fmt::v11::buffered_file" = type { ptr }
%"class.std::system_error" = type { %"class.std::runtime_error", %"class.std::error_code" }
%"class.std::runtime_error" = type { %"class.std::exception", %"struct.std::__cow_string" }
%"class.std::exception" = type { ptr }
%"struct.std::__cow_string" = type { %union.anon }
%union.anon = type { ptr }
%"class.std::error_code" = type { i32, ptr }
%"class.fmt::v11::basic_format_args" = type { i64, %union.anon.97 }
%union.anon.97 = type { ptr }
%"class.fmt::v11::detail::value" = type { %union.anon.98 }
%union.anon.98 = type { i128 }
%"struct.fmt::v11::fstring.0" = type { %"class.fmt::v11::basic_string_view" }
%"struct.fmt::v11::detail::format_arg_store.99" = type { [1 x %"class.fmt::v11::detail::value"] }
%"class.fmt::v11::file" = type { i32 }
%struct.FMT_COMPILE_STRING.30 = type { i8 }
%class.anon.31 = type { i8 }

@_ZTISt12system_error = external constant ptr
@_ZN12_GLOBAL__N_112fdopen_countE = internal global i32 0, align 4
@.str.79 = private unnamed_addr constant [45 x i8] c"cannot associate stream with file descriptor\00", align 1
@__const.fstring.sv.127 = private unnamed_addr constant %"class.fmt::v11::basic_string_view" { ptr @.str.79, i64 44 }, align 8
@_ZN3fmt3v1113buffered_fileD1Ev = hidden unnamed_addr alias void (ptr), ptr @_ZN3fmt3v1113buffered_fileD2Ev

; Function Attrs: mustprogress nounwind uwtable
define linkonce_odr hidden void @_ZN3fmt3v1117basic_string_viewIcEC2EPKcm(ptr noundef nonnull align 8 dereferenceable(16) %0, ptr noundef %1, i64 noundef %2) unnamed_addr #0 comdat align 2 {
  %4 = alloca ptr, align 8
  %5 = alloca ptr, align 8
  %6 = alloca i64, align 8
  store ptr %0, ptr %4, align 8, !tbaa !109
  store ptr %1, ptr %5, align 8, !tbaa !17
  store i64 %2, ptr %6, align 8, !tbaa !26
  %7 = load ptr, ptr %4, align 8
  %8 = getelementptr inbounds nuw %"class.fmt::v11::basic_string_view", ptr %7, i32 0, i32 0
  %9 = load ptr, ptr %5, align 8, !tbaa !17
  store ptr %9, ptr %8, align 8, !tbaa !111
  %10 = getelementptr inbounds nuw %"class.fmt::v11::basic_string_view", ptr %7, i32 0, i32 1
  %11 = load i64, ptr %6, align 8, !tbaa !26
  store i64 %11, ptr %10, align 8, !tbaa !113
  ret void
}

; Function Attrs: mustprogress nounwind uwtable
define linkonce_odr hidden noundef i32 @_ZNSt11char_traitsIcE11to_int_typeERKc(ptr noundef nonnull align 1 dereferenceable(1) %0) #0 comdat align 2 {
  %2 = alloca ptr, align 8
  store ptr %0, ptr %2, align 8, !tbaa !17
  %3 = load ptr, ptr %2, align 8, !tbaa !17
  %4 = load i8, ptr %3, align 1, !tbaa !53
  %5 = zext i8 %4 to i32
  ret i32 %5
}

; Function Attrs: mustprogress nounwind uwtable
define linkonce_odr hidden void @_ZN3fmt3v119monostateC2Ev(ptr noundef nonnull align 1 dereferenceable(1) %0) unnamed_addr #0 comdat align 2 {
  %2 = alloca ptr, align 8
  store ptr %0, ptr %2, align 8, !tbaa !335
  ret void
}

; Function Attrs: mustprogress nounwind uwtable
define linkonce_odr hidden { ptr, i64 } @_ZN3fmt3v116detail22compile_string_to_viewIcLm45EEENS0_17basic_string_viewIT_EERAT0__KS4_(ptr noundef nonnull align 1 dereferenceable(45) %0) #0 comdat {
  %2 = alloca %"class.fmt::v11::basic_string_view", align 8
  %3 = alloca ptr, align 8
  store ptr %0, ptr %3, align 8, !tbaa !17
  %4 = load ptr, ptr %3, align 8, !tbaa !17
  %5 = getelementptr inbounds [45 x i8], ptr %4, i64 0, i64 0
  %6 = load ptr, ptr %3, align 8, !tbaa !17
  %7 = getelementptr inbounds nuw [45 x i8], ptr %6, i64 0, i64 44
  %8 = call noundef i32 @_ZNSt11char_traitsIcE11to_int_typeERKc(ptr noundef nonnull align 1 dereferenceable(1) %7) #16
  %9 = icmp eq i32 %8, 0
  %10 = select i1 %9, i32 1, i32 0
  %11 = sext i32 %10 to i64
  %12 = sub i64 45, %11
  call void @_ZN3fmt3v1117basic_string_viewIcEC2EPKcm(ptr noundef nonnull align 8 dereferenceable(16) %2, ptr noundef %5, i64 noundef %12) #16
  %13 = load { ptr, i64 }, ptr %2, align 8
  ret { ptr, i64 } %13
}

; Function Attrs: alwaysinline mustprogress nounwind uwtable
define linkonce_odr hidden void @"_ZN3fmt3v1117basic_format_argsINS0_7contextEEC2ILi0ELi0ELy0ETnNSt9enable_ifIXleT_LNS0_6detail4$_14E15EEiE4typeELi0EEERKNS6_16format_arg_storeIS2_XT_EXT0_EXT1_EEE"(ptr noundef nonnull align 8 dereferenceable(16) %0, ptr noundef nonnull align 16 dereferenceable(16) %1) unnamed_addr #8 comdat align 2 {
  %3 = alloca ptr, align 8
  %4 = alloca ptr, align 8
  store ptr %0, ptr %3, align 8, !tbaa !327
  store ptr %1, ptr %4, align 8, !tbaa !333
  %5 = load ptr, ptr %3, align 8
  %6 = getelementptr inbounds nuw %"class.fmt::v11::basic_format_args", ptr %5, i32 0, i32 0
  store i64 0, ptr %6, align 8, !tbaa !331
  %7 = getelementptr inbounds nuw %"class.fmt::v11::basic_format_args", ptr %5, i32 0, i32 1
  %8 = load ptr, ptr %4, align 8, !tbaa !333
  %9 = getelementptr inbounds nuw %"struct.fmt::v11::detail::format_arg_store.99", ptr %8, i32 0, i32 0
  %10 = getelementptr inbounds [1 x %"class.fmt::v11::detail::value"], ptr %9, i64 0, i64 0
  store ptr %10, ptr %7, align 8, !tbaa !53
  ret void
}

; Function Attrs: alwaysinline mustprogress uwtable
define linkonce_odr hidden void @_ZN3fmt3v116detail5valueINS0_7contextEEC2Ev(ptr noundef nonnull align 16 dereferenceable(16) %0) unnamed_addr #7 comdat align 2 {
  %2 = alloca ptr, align 8
  store ptr %0, ptr %2, align 8, !tbaa !325
  %3 = load ptr, ptr %2, align 8
  %4 = getelementptr inbounds nuw %"class.fmt::v11::detail::value", ptr %3, i32 0, i32 0
  call void @_ZN3fmt3v119monostateC2Ev(ptr noundef nonnull align 1 dereferenceable(1) %4)
  ret void
}

; Function Attrs: mustprogress nounwind uwtable
define linkonce_odr hidden void @_ZN3fmt3v116detail13ignore_unusedIJiEEEvDpRKT_(ptr noundef nonnull align 4 dereferenceable(4) %0) #0 comdat {
  %2 = alloca ptr, align 8
  store ptr %0, ptr %2, align 8, !tbaa !64
  ret void
}

; Function Attrs: mustprogress nounwind uwtable
define linkonce_odr hidden void @_ZN3fmt3v116detail13ignore_unusedIJNS0_17basic_string_viewIcEEEEEvDpRKT_(ptr noundef nonnull align 8 dereferenceable(16) %0) #0 comdat {
  %2 = alloca ptr, align 8
  store ptr %0, ptr %2, align 8, !tbaa !109
  ret void
}

; Function Attrs: mustprogress uwtable
define internal { ptr, i64 } @"_ZZZN3fmt3v114file6fdopenEPKcENK3$_0clEvENK18FMT_COMPILE_STRINGcvNS0_17basic_string_viewIcEEEv"(ptr noundef nonnull align 1 dereferenceable(1) %0) #1 align 2 {
  %2 = alloca %"class.fmt::v11::basic_string_view", align 8
  %3 = alloca ptr, align 8
  store ptr %0, ptr %3, align 8, !tbaa !84
  %4 = call { ptr, i64 } @_ZN3fmt3v116detail22compile_string_to_viewIcLm45EEENS0_17basic_string_viewIT_EERAT0__KS4_(ptr noundef nonnull align 1 dereferenceable(45) @.str.79)
  %5 = getelementptr inbounds nuw { ptr, i64 }, ptr %2, i32 0, i32 0
  %6 = extractvalue { ptr, i64 } %4, 0
  store ptr %6, ptr %5, align 8
  %7 = getelementptr inbounds nuw { ptr, i64 }, ptr %2, i32 0, i32 1
  %8 = extractvalue { ptr, i64 } %4, 1
  store i64 %8, ptr %7, align 8
  %9 = load { ptr, i64 }, ptr %2, align 8
  ret { ptr, i64 } %9
}

; Function Attrs: inlinehint mustprogress nounwind uwtable
define linkonce_odr hidden void @_ZN3fmt3v1113buffered_fileC2EP8_IO_FILE(ptr noundef nonnull align 8 dereferenceable(8) %0, ptr noundef %1) unnamed_addr #10 comdat align 2 {
  %3 = alloca ptr, align 8
  %4 = alloca ptr, align 8
  store ptr %0, ptr %3, align 8, !tbaa !4
  store ptr %1, ptr %4, align 8, !tbaa !14
  %5 = load ptr, ptr %3, align 8
  %6 = getelementptr inbounds nuw %"class.fmt::v11::buffered_file", ptr %5, i32 0, i32 0
  %7 = load ptr, ptr %4, align 8, !tbaa !14
  store ptr %7, ptr %6, align 8, !tbaa !9
  ret void
}

; Function Attrs: mustprogress uwtable
define linkonce_odr hidden void @_ZN3fmt3v1112system_errorIJEEESt12system_erroriNS0_7fstringIJDpT_EE1tEDpOS4_(ptr dead_on_unwind noalias writable sret(%"class.std::system_error") align 8 %0, i32 noundef %1, ptr %2, i64 %3) #1 comdat {
  %5 = alloca ptr, align 8
  %6 = alloca %"struct.fmt::v11::fstring.0", align 8
  %7 = alloca i32, align 4
  %8 = alloca %"class.fmt::v11::basic_string_view", align 8
  %9 = alloca %"class.fmt::v11::basic_format_args", align 8
  %10 = alloca %"struct.fmt::v11::detail::format_arg_store.99", align 16
  store ptr %0, ptr %5, align 8
  %11 = getelementptr inbounds nuw { ptr, i64 }, ptr %6, i32 0, i32 0
  store ptr %2, ptr %11, align 8
  %12 = getelementptr inbounds nuw { ptr, i64 }, ptr %6, i32 0, i32 1
  store i64 %3, ptr %12, align 8
  store i32 %1, ptr %7, align 4, !tbaa !12
  %13 = load i32, ptr %7, align 4, !tbaa !12
  %14 = getelementptr inbounds nuw %"struct.fmt::v11::fstring.0", ptr %6, i32 0, i32 0
  call void @llvm.memcpy.p0.p0.i64(ptr align 8 %8, ptr align 8 %14, i64 16, i1 false), !tbaa.struct !25
  call void @llvm.lifetime.start.p0(i64 16, ptr %10) #16
  %15 = getelementptr inbounds nuw %"struct.fmt::v11::detail::format_arg_store.99", ptr %10, i32 0, i32 0
  %16 = getelementptr inbounds %"class.fmt::v11::detail::value", ptr %15, i64 1
  br label %17

17:                                               ; preds = %17, %4
  %18 = phi ptr [ %15, %4 ], [ %19, %17 ]
  call void @_ZN3fmt3v116detail5valueINS0_7contextEEC2Ev(ptr noundef nonnull align 16 dereferenceable(16) %18)
  %19 = getelementptr inbounds %"class.fmt::v11::detail::value", ptr %18, i64 1
  %20 = icmp eq ptr %19, %16
  br i1 %20, label %21, label %17

21:                                               ; preds = %17
  call void @"_ZN3fmt3v1117basic_format_argsINS0_7contextEEC2ILi0ELi0ELy0ETnNSt9enable_ifIXleT_LNS0_6detail4$_14E15EEiE4typeELi0EEERKNS6_16format_arg_storeIS2_XT_EXT0_EXT1_EEE"(ptr noundef nonnull align 8 dereferenceable(16) %9, ptr noundef nonnull align 16 dereferenceable(16) %10)
  %22 = getelementptr inbounds nuw { ptr, i64 }, ptr %8, i32 0, i32 0
  %23 = load ptr, ptr %22, align 8
  %24 = getelementptr inbounds nuw { ptr, i64 }, ptr %8, i32 0, i32 1
  %25 = load i64, ptr %24, align 8
  %26 = getelementptr inbounds nuw { i64, ptr }, ptr %9, i32 0, i32 0
  %27 = load i64, ptr %26, align 8
  %28 = getelementptr inbounds nuw { i64, ptr }, ptr %9, i32 0, i32 1
  %29 = load ptr, ptr %28, align 8
  call void @_ZN3fmt3v1113vsystem_errorEiNS0_17basic_string_viewIcEENS0_17basic_format_argsINS0_7contextEEE(ptr dead_on_unwind writable sret(%"class.std::system_error") align 8 %0, i32 noundef %13, ptr %23, i64 %25, i64 %27, ptr %29)
  call void @llvm.lifetime.end.p0(i64 16, ptr %10) #16
  ret void
}

; Function Attrs: alwaysinline mustprogress uwtable
define internal void @"_ZN3fmt3v117fstringIJEEC2IZZNS0_4file6fdopenEPKcENK3$_0clEvE18FMT_COMPILE_STRINGTnNSt9enable_ifIXaasr3std10is_base_ofINS0_6detail14compile_stringET_EE5valuesr3std7is_sameINSC_9char_typeEcEE5valueEiE4typeELi0EEERKSC_"(ptr noundef nonnull align 8 dereferenceable(16) %0, ptr noundef nonnull align 1 dereferenceable(1) %1) unnamed_addr #7 align 2 {
  %3 = alloca ptr, align 8
  %4 = alloca ptr, align 8
  %5 = alloca %struct.FMT_COMPILE_STRING.30, align 1
  %6 = alloca %"class.fmt::v11::basic_string_view", align 8
  %7 = alloca i32, align 4
  store ptr %0, ptr %3, align 8, !tbaa !33
  store ptr %1, ptr %4, align 8, !tbaa !84
  %8 = load ptr, ptr %3, align 8
  call void @llvm.lifetime.start.p0(i64 1, ptr %5) #16
  %9 = call { ptr, i64 } @"_ZZZN3fmt3v114file6fdopenEPKcENK3$_0clEvENK18FMT_COMPILE_STRINGcvNS0_17basic_string_viewIcEEEv"(ptr noundef nonnull align 1 dereferenceable(1) %5)
  %10 = getelementptr inbounds nuw { ptr, i64 }, ptr %8, i32 0, i32 0
  %11 = extractvalue { ptr, i64 } %9, 0
  store ptr %11, ptr %10, align 8
  %12 = getelementptr inbounds nuw { ptr, i64 }, ptr %8, i32 0, i32 1
  %13 = extractvalue { ptr, i64 } %9, 1
  store i64 %13, ptr %12, align 8
  call void @llvm.lifetime.end.p0(i64 1, ptr %5) #16
  call void @llvm.lifetime.start.p0(i64 16, ptr %6) #16
  call void @llvm.memcpy.p0.p0.i64(ptr align 8 %6, ptr align 8 @__const.fstring.sv.127, i64 16, i1 false)
  call void @llvm.lifetime.start.p0(i64 4, ptr %7) #16
  store i32 0, ptr %7, align 4, !tbaa !12
  call void @_ZN3fmt3v116detail13ignore_unusedIJiEEEvDpRKT_(ptr noundef nonnull align 4 dereferenceable(4) %7)
  call void @llvm.lifetime.end.p0(i64 4, ptr %7) #16
  call void @llvm.lifetime.end.p0(i64 16, ptr %6) #16
  ret void
}

; Function Attrs: inlinehint mustprogress uwtable
define internal void @"_ZZN3fmt3v114file6fdopenEPKcENK3$_0clEv"(ptr noundef nonnull align 1 dereferenceable(1) %0) #6 align 2 {
  %2 = alloca ptr, align 8
  %3 = alloca %"class.fmt::v11::basic_string_view", align 8
  %4 = alloca %struct.FMT_COMPILE_STRING.30, align 1
  store ptr %0, ptr %2, align 8, !tbaa !28
  call void @llvm.lifetime.start.p0(i64 16, ptr %3) #16
  call void @llvm.lifetime.start.p0(i64 1, ptr %4) #16
  %5 = call { ptr, i64 } @"_ZZZN3fmt3v114file6fdopenEPKcENK3$_0clEvENK18FMT_COMPILE_STRINGcvNS0_17basic_string_viewIcEEEv"(ptr noundef nonnull align 1 dereferenceable(1) %4)
  %6 = getelementptr inbounds nuw { ptr, i64 }, ptr %3, i32 0, i32 0
  %7 = extractvalue { ptr, i64 } %5, 0
  store ptr %7, ptr %6, align 8
  %8 = getelementptr inbounds nuw { ptr, i64 }, ptr %3, i32 0, i32 1
  %9 = extractvalue { ptr, i64 } %5, 1
  store i64 %9, ptr %8, align 8
  call void @_ZN3fmt3v116detail13ignore_unusedIJNS0_17basic_string_viewIcEEEEEvDpRKT_(ptr noundef nonnull align 8 dereferenceable(16) %3)
  call void @llvm.lifetime.end.p0(i64 1, ptr %4) #16
  call void @llvm.lifetime.end.p0(i64 16, ptr %3) #16
  ret void
}

; Function Attrs: mustprogress nounwind uwtable
define hidden noundef ptr @_ZN4test6fdopenEiPKc(i32 noundef %0, ptr noundef %1) #0 {
  %3 = alloca ptr, align 8
  %4 = alloca i32, align 4
  %5 = alloca ptr, align 8
  store i32 %0, ptr %4, align 4, !tbaa !12
  store ptr %1, ptr %5, align 8, !tbaa !17
  %6 = load i32, ptr @_ZN12_GLOBAL__N_112fdopen_countE, align 4, !tbaa !12
  %7 = icmp ne i32 %6, 0
  br i1 %7, label %8, label %15

8:                                                ; preds = %2
  %9 = load i32, ptr @_ZN12_GLOBAL__N_112fdopen_countE, align 4, !tbaa !12
  %10 = add nsw i32 %9, 1
  store i32 %10, ptr @_ZN12_GLOBAL__N_112fdopen_countE, align 4, !tbaa !12
  %11 = icmp ne i32 %9, 3
  br i1 %11, label %12, label %14

12:                                               ; preds = %8
  %13 = call ptr @__errno_location() #20
  store i32 4, ptr %13, align 4, !tbaa !12
  store ptr null, ptr %3, align 8
  br label %19

14:                                               ; preds = %8
  br label %15

15:                                               ; preds = %14, %2
  %16 = load i32, ptr %4, align 4, !tbaa !12
  %17 = load ptr, ptr %5, align 8, !tbaa !17
  %18 = call noalias ptr @fdopen(i32 noundef %16, ptr noundef %17) #16
  store ptr %18, ptr %3, align 8
  br label %19

19:                                               ; preds = %15, %12
  %20 = load ptr, ptr %3, align 8
  ret ptr %20
}

; Function Attrs: mustprogress uwtable
define hidden void @_ZN3fmt3v114file6fdopenEPKc(ptr dead_on_unwind noalias writable sret(%"class.fmt::v11::buffered_file") align 8 %0, ptr noundef nonnull align 4 dereferenceable(4) %1, ptr noundef %2) #1 align 2 personality ptr @__gxx_personality_v0 {
  %4 = alloca ptr, align 8
  %5 = alloca ptr, align 8
  %6 = alloca ptr, align 8
  %7 = alloca ptr, align 8
  %8 = alloca %"struct.fmt::v11::fstring.0", align 8
  %9 = alloca %struct.FMT_COMPILE_STRING.30, align 1
  %10 = alloca %class.anon.31, align 1
  %11 = alloca ptr, align 8
  %12 = alloca i32, align 4
  %13 = alloca i1, align 1
  %14 = alloca i1, align 1
  store ptr %0, ptr %4, align 8
  store ptr %1, ptr %5, align 8, !tbaa !39
  store ptr %2, ptr %6, align 8, !tbaa !17
  %15 = load ptr, ptr %5, align 8
  call void @llvm.lifetime.start.p0(i64 8, ptr %7) #16
  %16 = getelementptr inbounds nuw %"class.fmt::v11::file", ptr %15, i32 0, i32 0
  %17 = load i32, ptr %16, align 4, !tbaa !41
  %18 = load ptr, ptr %6, align 8, !tbaa !17
  %19 = call noundef ptr @_ZN4test6fdopenEiPKc(i32 noundef %17, ptr noundef %18)
  store ptr %19, ptr %7, align 8, !tbaa !14
  %20 = load ptr, ptr %7, align 8, !tbaa !14
  %21 = icmp ne ptr %20, null
  br i1 %21, label %40, label %22

22:                                               ; preds = %3
  store i1 true, ptr %13, align 1
  %23 = call ptr @__cxa_allocate_exception(i64 32) #16
  %24 = call ptr @__errno_location() #20
  %25 = load i32, ptr %24, align 4, !tbaa !12
  call void @llvm.lifetime.start.p0(i64 1, ptr %9) #16
  call void @llvm.lifetime.start.p0(i64 1, ptr %10) #16
  invoke void @"_ZZN3fmt3v114file6fdopenEPKcENK3$_0clEv"(ptr noundef nonnull align 1 dereferenceable(1) %10)
          to label %26 unwind label %33

26:                                               ; preds = %22
  invoke void @"_ZN3fmt3v117fstringIJEEC2IZZNS0_4file6fdopenEPKcENK3$_0clEvE18FMT_COMPILE_STRINGTnNSt9enable_ifIXaasr3std10is_base_ofINS0_6detail14compile_stringET_EE5valuesr3std7is_sameINSC_9char_typeEcEE5valueEiE4typeELi0EEERKSC_"(ptr noundef nonnull align 8 dereferenceable(16) %8, ptr noundef nonnull align 1 dereferenceable(1) %9)
          to label %27 unwind label %33

27:                                               ; preds = %26
  %28 = getelementptr inbounds nuw { ptr, i64 }, ptr %8, i32 0, i32 0
  %29 = load ptr, ptr %28, align 8
  %30 = getelementptr inbounds nuw { ptr, i64 }, ptr %8, i32 0, i32 1
  %31 = load i64, ptr %30, align 8
  invoke void @_ZN3fmt3v1112system_errorIJEEESt12system_erroriNS0_7fstringIJDpT_EE1tEDpOS4_(ptr dead_on_unwind writable sret(%"class.std::system_error") align 8 %23, i32 noundef %25, ptr %29, i64 %31)
          to label %32 unwind label %33

32:                                               ; preds = %27
  store i1 false, ptr %13, align 1
  invoke void @__cxa_throw(ptr %23, ptr @_ZTISt12system_error, ptr @_ZNSt12system_errorD1Ev) #22
          to label %51 unwind label %33

33:                                               ; preds = %32, %27, %26, %22
  %34 = landingpad { ptr, i32 }
          cleanup
  %35 = extractvalue { ptr, i32 } %34, 0
  store ptr %35, ptr %11, align 8
  %36 = extractvalue { ptr, i32 } %34, 1
  store i32 %36, ptr %12, align 4
  call void @llvm.lifetime.end.p0(i64 1, ptr %10) #16
  call void @llvm.lifetime.end.p0(i64 1, ptr %9) #16
  %37 = load i1, ptr %13, align 1
  br i1 %37, label %38, label %39

38:                                               ; preds = %33
  call void @__cxa_free_exception(ptr %23) #16
  br label %39

39:                                               ; preds = %38, %33
  call void @llvm.lifetime.end.p0(i64 8, ptr %7) #16
  br label %46

40:                                               ; preds = %3
  store i1 false, ptr %14, align 1
  %41 = load ptr, ptr %7, align 8, !tbaa !14
  call void @_ZN3fmt3v1113buffered_fileC2EP8_IO_FILE(ptr noundef nonnull align 8 dereferenceable(8) %0, ptr noundef %41)
  %42 = getelementptr inbounds nuw %"class.fmt::v11::file", ptr %15, i32 0, i32 0
  store i32 -1, ptr %42, align 4, !tbaa !41
  store i1 true, ptr %14, align 1
  %43 = load i1, ptr %14, align 1
  br i1 %43, label %45, label %44

44:                                               ; preds = %40
  call void @_ZN3fmt3v1113buffered_fileD1Ev(ptr noundef nonnull align 8 dereferenceable(8) %0) #16
  br label %45

45:                                               ; preds = %44, %40
  call void @llvm.lifetime.end.p0(i64 8, ptr %7) #16
  ret void

46:                                               ; preds = %39
  %47 = load ptr, ptr %11, align 8
  %48 = load i32, ptr %12, align 4
  %49 = insertvalue { ptr, i32 } poison, ptr %47, 0
  %50 = insertvalue { ptr, i32 } %49, i32 %48, 1
  resume { ptr, i32 } %50

51:                                               ; preds = %32
  unreachable
}