; Function Attrs: mustprogress uwtable
define hidden void @_ZN3fmt3v114file6fdopenEPKc(ptr dead_on_unwind noalias writable writeonly sret(%"class.fmt::v11::buffered_file") align 8 captures(none) %0, ptr noundef nonnull align 4 captures(none) dereferenceable(4) %1, ptr noundef readonly captures(none) %2) local_unnamed_addr #6 align 2 personality ptr @__gxx_personality_v0 {
  %4 = alloca %"struct.fmt::v11::detail::format_arg_store.99", align 16
  %5 = load i32, ptr %1, align 4, !tbaa !24
  %6 = load i32, ptr @_ZN12_GLOBAL__N_112fdopen_countE, align 4, !tbaa !10
  %.not.i = icmp eq i32 %6, 0
  br i1 %.not.i, label %_ZN4test6fdopenEiPKc.exit, label %7

7:                                                ; preds = %3
  %8 = add nsw i32 %6, 1
  store i32 %8, ptr @_ZN12_GLOBAL__N_112fdopen_countE, align 4, !tbaa !10
  %.not3.i = icmp eq i32 %6, 3
  br i1 %.not3.i, label %_ZN4test6fdopenEiPKc.exit, label %_ZN4test6fdopenEiPKc.exit.thread

_ZN4test6fdopenEiPKc.exit.thread:                 ; preds = %7
  %9 = tail call ptr @__errno_location() #28
  store i32 4, ptr %9, align 4, !tbaa !10
  br label %11

_ZN4test6fdopenEiPKc.exit:                        ; preds = %3, %7
  %10 = tail call noalias ptr @fdopen(i32 noundef %5, ptr noundef readonly %2) #29
  %.not = icmp eq ptr %10, null
  br i1 %.not, label %11, label %18

11:                                               ; preds = %_ZN4test6fdopenEiPKc.exit, %_ZN4test6fdopenEiPKc.exit.thread
  %12 = tail call ptr @__cxa_allocate_exception(i64 32) #29
  %13 = tail call ptr @__errno_location() #28
  %14 = load i32, ptr %13, align 4, !tbaa !10
  call void @llvm.lifetime.start.p0(i64 16, ptr nonnull %4) #29, !noalias !58
  invoke void @_ZN3fmt3v1113vsystem_errorEiNS0_17basic_string_viewIcEENS0_17basic_format_argsINS0_7contextEEE(ptr dead_on_unwind writable sret(%"class.std::system_error") align 8 %12, i32 noundef %14, ptr nonnull @.str.79, i64 44, i64 0, ptr nonnull %4)
          to label %15 unwind label %16

15:                                               ; preds = %11
  call void @llvm.lifetime.end.p0(i64 16, ptr nonnull %4) #29, !noalias !58
  call void @__cxa_throw(ptr %12, ptr nonnull @_ZTISt12system_error, ptr nonnull @_ZNSt12system_errorD1Ev) #31
  unreachable

16:                                               ; preds = %11
  %17 = landingpad { ptr, i32 }
          cleanup
  call void @__cxa_free_exception(ptr %12) #29
  resume { ptr, i32 } %17

18:                                               ; preds = %_ZN4test6fdopenEiPKc.exit
  store ptr %10, ptr %0, align 8, !tbaa !4
  store i32 -1, ptr %1, align 4, !tbaa !24
  ret void
}